target datalayout = "e-m:e-p270:32:32-p271:32:32-p272:64:64-i64:64-i128:128-f80:128-n8:16:32:64-S128"
target triple = "x86_64-pc-linux-gnu"

; Function Attrs: inlinehint mustprogress nounwind uwtable
define linkonce_odr dso_local noundef float @_ZSt4fabsf(float noundef %0) #5 comdat {
  %2 = alloca float, align 4
  store float %0, ptr %2, align 4, !tbaa !14
  %3 = load float, ptr %2, align 4, !tbaa !14
  %4 = call float @llvm.fabs.f32(float %3)
  ret float %4
}

; Function Attrs: mustprogress uwtable
define dso_local noundef float @_Z9SolveP5_1fffff(float noundef %0, float noundef %1, float noundef %2, float noundef %3, float noundef %4) #2 {
  %6 = alloca float, align 4
  %7 = alloca float, align 4
  %8 = alloca float, align 4
  %9 = alloca float, align 4
  %10 = alloca float, align 4
  %11 = alloca float, align 4
  %12 = alloca i32, align 4
  %13 = alloca i32, align 4
  %14 = alloca float, align 4
  %15 = alloca float, align 4
  %16 = alloca float, align 4
  %17 = alloca float, align 4
  %18 = alloca float, align 4
  %19 = alloca float, align 4
  %20 = alloca float, align 4
  %21 = alloca float, align 4
  %22 = alloca float, align 4
  store float %0, ptr %7, align 4, !tbaa !14
  store float %1, ptr %8, align 4, !tbaa !14
  store float %2, ptr %9, align 4, !tbaa !14
  store float %3, ptr %10, align 4, !tbaa !14
  store float %4, ptr %11, align 4, !tbaa !14
  call void @llvm.lifetime.start.p0(i64 4, ptr %12) #8
  %23 = load float, ptr %11, align 4, !tbaa !14
  %24 = call noundef float @_ZSt4fabsf(float noundef %23)
  %25 = fcmp olt float %24, 0x3E80000000000000
  br i1 %25, label %26, label %27

26:                                               ; preds = %5
  store float 0.000000e+00, ptr %6, align 4
  store i32 1, ptr %13, align 4
  br label %248

27:                                               ; preds = %5
  call void @llvm.lifetime.start.p0(i64 4, ptr %14) #8
  %28 = load float, ptr %7, align 4, !tbaa !14
  %29 = call noundef float @_ZSt4fabsf(float noundef %28)
  store float %29, ptr %14, align 4, !tbaa !14
  %30 = load float, ptr %8, align 4, !tbaa !14
  %31 = call noundef float @_ZSt4fabsf(float noundef %30)
  %32 = load float, ptr %14, align 4, !tbaa !14
  %33 = fcmp ogt float %31, %32
  br i1 %33, label %34, label %37

34:                                               ; preds = %27
  %35 = load float, ptr %8, align 4, !tbaa !14
  %36 = call noundef float @_ZSt4fabsf(float noundef %35)
  store float %36, ptr %14, align 4, !tbaa !14
  br label %37

37:                                               ; preds = %34, %27
  %38 = load float, ptr %9, align 4, !tbaa !14
  %39 = call noundef float @_ZSt4fabsf(float noundef %38)
  %40 = load float, ptr %14, align 4, !tbaa !14
  %41 = fcmp ogt float %39, %40
  br i1 %41, label %42, label %45

42:                                               ; preds = %37
  %43 = load float, ptr %9, align 4, !tbaa !14
  %44 = call noundef float @_ZSt4fabsf(float noundef %43)
  store float %44, ptr %14, align 4, !tbaa !14
  br label %45

45:                                               ; preds = %42, %37
  %46 = load float, ptr %10, align 4, !tbaa !14
  %47 = call noundef float @_ZSt4fabsf(float noundef %46)
  %48 = load float, ptr %14, align 4, !tbaa !14
  %49 = fcmp ogt float %47, %48
  br i1 %49, label %50, label %53

50:                                               ; preds = %45
  %51 = load float, ptr %10, align 4, !tbaa !14
  %52 = call noundef float @_ZSt4fabsf(float noundef %51)
  store float %52, ptr %14, align 4, !tbaa !14
  br label %53

53:                                               ; preds = %50, %45
  %54 = load float, ptr %11, align 4, !tbaa !14
  %55 = call noundef float @_ZSt4fabsf(float noundef %54)
  %56 = load float, ptr %14, align 4, !tbaa !14
  %57 = fcmp ogt float %55, %56
  br i1 %57, label %58, label %61

58:                                               ; preds = %53
  %59 = load float, ptr %11, align 4, !tbaa !14
  %60 = call noundef float @_ZSt4fabsf(float noundef %59)
  store float %60, ptr %14, align 4, !tbaa !14
  br label %61

61:                                               ; preds = %58, %53
  %62 = load float, ptr %14, align 4, !tbaa !14
  %63 = fadd float %62, 1.000000e+00
  store float %63, ptr %14, align 4, !tbaa !14
  call void @llvm.lifetime.start.p0(i64 4, ptr %15) #8
  call void @llvm.lifetime.start.p0(i64 4, ptr %16) #8
  call void @llvm.lifetime.start.p0(i64 4, ptr %17) #8
  call void @llvm.lifetime.start.p0(i64 4, ptr %18) #8
  call void @llvm.lifetime.start.p0(i64 4, ptr %19) #8
  call void @llvm.lifetime.start.p0(i64 4, ptr %20) #8
  call void @llvm.lifetime.start.p0(i64 4, ptr %21) #8
  call void @llvm.lifetime.start.p0(i64 4, ptr %22) #8
  store float 0.000000e+00, ptr %22, align 4, !tbaa !14
  %64 = load float, ptr %11, align 4, !tbaa !14
  %65 = fcmp olt float %64, 0.000000e+00
  br i1 %65, label %66, label %88

66:                                               ; preds = %61
  store float 0.000000e+00, ptr %15, align 4, !tbaa !14
  %67 = load float, ptr %14, align 4, !tbaa !14
  store float %67, ptr %17, align 4, !tbaa !14
  %68 = load float, ptr %11, align 4, !tbaa !14
  store float %68, ptr %16, align 4, !tbaa !14
  %69 = load float, ptr %17, align 4, !tbaa !14
  %70 = load float, ptr %7, align 4, !tbaa !14
  %71 = fadd float %69, %70
  %72 = load float, ptr %17, align 4, !tbaa !14
  %73 = load float, ptr %8, align 4, !tbaa !14
  %74 = call float @llvm.fmuladd.f32(float %71, float %72, float %73)
  %75 = load float, ptr %17, align 4, !tbaa !14
  %76 = load float, ptr %9, align 4, !tbaa !14
  %77 = call float @llvm.fmuladd.f32(float %74, float %75, float %76)
  %78 = load float, ptr %17, align 4, !tbaa !14
  %79 = load float, ptr %10, align 4, !tbaa !14
  %80 = call float @llvm.fmuladd.f32(float %77, float %78, float %79)
  %81 = load float, ptr %17, align 4, !tbaa !14
  %82 = load float, ptr %11, align 4, !tbaa !14
  %83 = call float @llvm.fmuladd.f32(float %80, float %81, float %82)
  store float %83, ptr %18, align 4, !tbaa !14
  %84 = load float, ptr %14, align 4, !tbaa !14
  %85 = fpext float %84 to double
  %86 = fmul double 1.000000e-02, %85
  %87 = fptrunc double %86 to float
  store float %87, ptr %19, align 4, !tbaa !14
  br label %111

88:                                               ; preds = %61
  %89 = load float, ptr %14, align 4, !tbaa !14
  %90 = fneg float %89
  store float %90, ptr %15, align 4, !tbaa !14
  store float 0.000000e+00, ptr %17, align 4, !tbaa !14
  %91 = load float, ptr %15, align 4, !tbaa !14
  %92 = load float, ptr %7, align 4, !tbaa !14
  %93 = fadd float %91, %92
  %94 = load float, ptr %15, align 4, !tbaa !14
  %95 = load float, ptr %8, align 4, !tbaa !14
  %96 = call float @llvm.fmuladd.f32(float %93, float %94, float %95)
  %97 = load float, ptr %15, align 4, !tbaa !14
  %98 = load float, ptr %9, align 4, !tbaa !14
  %99 = call float @llvm.fmuladd.f32(float %96, float %97, float %98)
  %100 = load float, ptr %15, align 4, !tbaa !14
  %101 = load float, ptr %10, align 4, !tbaa !14
  %102 = call float @llvm.fmuladd.f32(float %99, float %100, float %101)
  %103 = load float, ptr %15, align 4, !tbaa !14
  %104 = load float, ptr %11, align 4, !tbaa !14
  %105 = call float @llvm.fmuladd.f32(float %102, float %103, float %104)
  store float %105, ptr %16, align 4, !tbaa !14
  %106 = load float, ptr %11, align 4, !tbaa !14
  store float %106, ptr %18, align 4, !tbaa !14
  %107 = load float, ptr %14, align 4, !tbaa !14
  %108 = fpext float %107 to double
  %109 = fmul double -1.000000e-02, %108
  %110 = fptrunc double %109 to float
  store float %110, ptr %19, align 4, !tbaa !14
  br label %111

111:                                              ; preds = %88, %66
  %112 = load float, ptr %16, align 4, !tbaa !14
  %113 = call noundef float @_ZSt4fabsf(float noundef %112)
  %114 = fcmp olt float %113, 0x3E80000000000000
  br i1 %114, label %115, label %117

115:                                              ; preds = %111
  %116 = load float, ptr %15, align 4, !tbaa !14
  store float %116, ptr %6, align 4
  store i32 1, ptr %13, align 4
  br label %247

117:                                              ; preds = %111
  %118 = load float, ptr %18, align 4, !tbaa !14
  %119 = call noundef float @_ZSt4fabsf(float noundef %118)
  %120 = fcmp olt float %119, 0x3E80000000000000
  br i1 %120, label %121, label %123

121:                                              ; preds = %117
  %122 = load float, ptr %17, align 4, !tbaa !14
  store float %122, ptr %6, align 4
  store i32 1, ptr %13, align 4
  br label %247

123:                                              ; preds = %117
  store i32 0, ptr %12, align 4, !tbaa !9
  br label %124

124:                                              ; preds = %162, %123
  %125 = load i32, ptr %12, align 4, !tbaa !9
  %126 = icmp slt i32 %125, 10
  br i1 %126, label %127, label %165

127:                                              ; preds = %124
  %128 = load float, ptr %15, align 4, !tbaa !14
  %129 = load float, ptr %17, align 4, !tbaa !14
  %130 = fadd float %128, %129
  %131 = fdiv float %130, 2.000000e+00
  store float %131, ptr %19, align 4, !tbaa !14
  %132 = load float, ptr %19, align 4, !tbaa !14
  %133 = load float, ptr %7, align 4, !tbaa !14
  %134 = fadd float %132, %133
  %135 = load float, ptr %19, align 4, !tbaa !14
  %136 = load float, ptr %8, align 4, !tbaa !14
  %137 = call float @llvm.fmuladd.f32(float %134, float %135, float %136)
  %138 = load float, ptr %19, align 4, !tbaa !14
  %139 = load float, ptr %9, align 4, !tbaa !14
  %140 = call float @llvm.fmuladd.f32(float %137, float %138, float %139)
  %141 = load float, ptr %19, align 4, !tbaa !14
  %142 = load float, ptr %10, align 4, !tbaa !14
  %143 = call float @llvm.fmuladd.f32(float %140, float %141, float %142)
  %144 = load float, ptr %19, align 4, !tbaa !14
  %145 = load float, ptr %11, align 4, !tbaa !14
  %146 = call float @llvm.fmuladd.f32(float %143, float %144, float %145)
  store float %146, ptr %20, align 4, !tbaa !14
  %147 = load float, ptr %20, align 4, !tbaa !14
  %148 = call noundef float @_ZSt4fabsf(float noundef %147)
  %149 = fcmp olt float %148, 0x3E80000000000000
  br i1 %149, label %150, label %152

150:                                              ; preds = %127
  %151 = load float, ptr %19, align 4, !tbaa !14
  store float %151, ptr %6, align 4
  store i32 1, ptr %13, align 4
  br label %247

152:                                              ; preds = %127
  %153 = load float, ptr %20, align 4, !tbaa !14
  %154 = fcmp ogt float %153, 0.000000e+00
  br i1 %154, label %155, label %158

155:                                              ; preds = %152
  %156 = load float, ptr %19, align 4, !tbaa !14
  store float %156, ptr %17, align 4, !tbaa !14
  %157 = load float, ptr %20, align 4, !tbaa !14
  store float %157, ptr %18, align 4, !tbaa !14
  br label %161

158:                                              ; preds = %152
  %159 = load float, ptr %19, align 4, !tbaa !14
  store float %159, ptr %15, align 4, !tbaa !14
  %160 = load float, ptr %20, align 4, !tbaa !14
  store float %160, ptr %16, align 4, !tbaa !14
  br label %161

161:                                              ; preds = %158, %155
  br label %162

162:                                              ; preds = %161
  %163 = load i32, ptr %12, align 4, !tbaa !9
  %164 = add nsw i32 %163, 1
  store i32 %164, ptr %12, align 4, !tbaa !9
  br label %124, !llvm.loop !16

165:                                              ; preds = %124
  br label %166

166:                                              ; preds = %241, %165
  %167 = load i32, ptr %12, align 4, !tbaa !9
  %168 = add nsw i32 %167, 1
  store i32 %168, ptr %12, align 4, !tbaa !9
  %169 = icmp sgt i32 %167, 50
  br i1 %169, label %170, label %171

170:                                              ; preds = %166
  br label %245

171:                                              ; preds = %166
  %172 = load float, ptr %19, align 4, !tbaa !14
  %173 = load float, ptr %15, align 4, !tbaa !14
  %174 = fcmp ole float %172, %173
  br i1 %174, label %179, label %175

175:                                              ; preds = %171
  %176 = load float, ptr %19, align 4, !tbaa !14
  %177 = load float, ptr %17, align 4, !tbaa !14
  %178 = fcmp oge float %176, %177
  br i1 %178, label %179, label %184

179:                                              ; preds = %175, %171
  %180 = load float, ptr %15, align 4, !tbaa !14
  %181 = load float, ptr %17, align 4, !tbaa !14
  %182 = fadd float %180, %181
  %183 = fdiv float %182, 2.000000e+00
  store float %183, ptr %19, align 4, !tbaa !14
  br label %184

184:                                              ; preds = %179, %175
  %185 = load float, ptr %19, align 4, !tbaa !14
  %186 = load float, ptr %7, align 4, !tbaa !14
  %187 = fadd float %185, %186
  %188 = load float, ptr %19, align 4, !tbaa !14
  %189 = load float, ptr %8, align 4, !tbaa !14
  %190 = call float @llvm.fmuladd.f32(float %187, float %188, float %189)
  %191 = load float, ptr %19, align 4, !tbaa !14
  %192 = load float, ptr %9, align 4, !tbaa !14
  %193 = call float @llvm.fmuladd.f32(float %190, float %191, float %192)
  %194 = load float, ptr %19, align 4, !tbaa !14
  %195 = load float, ptr %10, align 4, !tbaa !14
  %196 = call float @llvm.fmuladd.f32(float %193, float %194, float %195)
  %197 = load float, ptr %19, align 4, !tbaa !14
  %198 = load float, ptr %11, align 4, !tbaa !14
  %199 = call float @llvm.fmuladd.f32(float %196, float %197, float %198)
  store float %199, ptr %20, align 4, !tbaa !14
  %200 = load float, ptr %20, align 4, !tbaa !14
  %201 = call noundef float @_ZSt4fabsf(float noundef %200)
  %202 = fcmp olt float %201, 0x3E80000000000000
  br i1 %202, label %203, label %205

203:                                              ; preds = %184
  %204 = load float, ptr %19, align 4, !tbaa !14
  store float %204, ptr %6, align 4
  store i32 1, ptr %13, align 4
  br label %247

205:                                              ; preds = %184
  %206 = load float, ptr %20, align 4, !tbaa !14
  %207 = fcmp ogt float %206, 0.000000e+00
  br i1 %207, label %208, label %211

208:                                              ; preds = %205
  %209 = load float, ptr %19, align 4, !tbaa !14
  store float %209, ptr %17, align 4, !tbaa !14
  %210 = load float, ptr %20, align 4, !tbaa !14
  store float %210, ptr %18, align 4, !tbaa !14
  br label %214

211:                                              ; preds = %205
  %212 = load float, ptr %19, align 4, !tbaa !14
  store float %212, ptr %15, align 4, !tbaa !14
  %213 = load float, ptr %20, align 4, !tbaa !14
  store float %213, ptr %16, align 4, !tbaa !14
  br label %214

214:                                              ; preds = %211, %208
  %215 = load float, ptr %19, align 4, !tbaa !14
  %216 = load float, ptr %7, align 4, !tbaa !14
  %217 = fmul float 4.000000e+00, %216
  %218 = call float @llvm.fmuladd.f32(float 5.000000e+00, float %215, float %217)
  %219 = load float, ptr %19, align 4, !tbaa !14
  %220 = load float, ptr %8, align 4, !tbaa !14
  %221 = fmul float 3.000000e+00, %220
  %222 = call float @llvm.fmuladd.f32(float %218, float %219, float %221)
  %223 = load float, ptr %19, align 4, !tbaa !14
  %224 = load float, ptr %9, align 4, !tbaa !14
  %225 = fmul float 2.000000e+00, %224
  %226 = call float @llvm.fmuladd.f32(float %222, float %223, float %225)
  %227 = load float, ptr %19, align 4, !tbaa !14
  %228 = load float, ptr %10, align 4, !tbaa !14
  %229 = call float @llvm.fmuladd.f32(float %226, float %227, float %228)
  store float %229, ptr %21, align 4, !tbaa !14
  %230 = load float, ptr %21, align 4, !tbaa !14
  %231 = call noundef float @_ZSt4fabsf(float noundef %230)
  %232 = fcmp olt float %231, 0x3E80000000000000
  br i1 %232, label %233, label %234

233:                                              ; preds = %214
  store float 0x7FF0000000000000, ptr %19, align 4, !tbaa !14
  br label %241

234:                                              ; preds = %214
  %235 = load float, ptr %20, align 4, !tbaa !14
  %236 = load float, ptr %21, align 4, !tbaa !14
  %237 = fdiv float %235, %236
  store float %237, ptr %22, align 4, !tbaa !14
  %238 = load float, ptr %22, align 4, !tbaa !14
  %239 = load float, ptr %19, align 4, !tbaa !14
  %240 = fsub float %239, %238
  store float %240, ptr %19, align 4, !tbaa !14
  br label %241

241:                                              ; preds = %234, %233
  %242 = load float, ptr %22, align 4, !tbaa !14
  %243 = call noundef float @_ZSt4fabsf(float noundef %242)
  %244 = fcmp ogt float %243, 0x3E80000000000000
  br i1 %244, label %166, label %245, !llvm.loop !18

245:                                              ; preds = %241, %170
  %246 = load float, ptr %19, align 4, !tbaa !14
  store float %246, ptr %6, align 4
  store i32 1, ptr %13, align 4
  br label %247

247:                                              ; preds = %245, %203, %150, %121, %115
  call void @llvm.lifetime.end.p0(i64 4, ptr %22) #8
  call void @llvm.lifetime.end.p0(i64 4, ptr %21) #8
  call void @llvm.lifetime.end.p0(i64 4, ptr %20) #8
  call void @llvm.lifetime.end.p0(i64 4, ptr %19) #8
  call void @llvm.lifetime.end.p0(i64 4, ptr %18) #8
  call void @llvm.lifetime.end.p0(i64 4, ptr %17) #8
  call void @llvm.lifetime.end.p0(i64 4, ptr %16) #8
  call void @llvm.lifetime.end.p0(i64 4, ptr %15) #8
  call void @llvm.lifetime.end.p0(i64 4, ptr %14) #8
  br label %248

248:                                              ; preds = %247, %26
  call void @llvm.lifetime.end.p0(i64 4, ptr %12) #8
  %249 = load float, ptr %6, align 4
  ret float %249
}