; Function Attrs: mustprogress nofree norecurse nosync nounwind willreturn memory(none) uwtable
define dso_local noundef float @_Z9SolveP5_1fffff(float noundef %0, float noundef %1, float noundef %2, float noundef %3, float noundef %4) local_unnamed_addr #5 {
  %6 = tail call noundef float @llvm.fabs.f32(float %4)
  %7 = fcmp olt float %6, 0x3E80000000000000
  br i1 %7, label %.loopexit, label %8

8:                                                ; preds = %5
  %9 = tail call noundef float @llvm.fabs.f32(float %0)
  %10 = tail call noundef float @llvm.fabs.f32(float %1)
  %11 = fcmp ogt float %10, %9
  %.0122 = select i1 %11, float %10, float %9
  %12 = tail call noundef float @llvm.fabs.f32(float %2)
  %13 = fcmp ogt float %12, %.0122
  %.1123 = select i1 %13, float %12, float %.0122
  %14 = tail call noundef float @llvm.fabs.f32(float %3)
  %15 = fcmp ogt float %14, %.1123
  %.2124 = select i1 %15, float %14, float %.1123
  %16 = fcmp ogt float %6, %.2124
  %.3125 = select i1 %16, float %6, float %.2124
  %17 = fadd float %.3125, 1.000000e+00
  %18 = fcmp olt float %4, 0.000000e+00
  br i1 %18, label %19, label %25

19:                                               ; preds = %8
  %20 = fadd float %0, %17
  %21 = tail call float @llvm.fmuladd.f32(float %20, float %17, float %1)
  %22 = tail call float @llvm.fmuladd.f32(float %21, float %17, float %2)
  %23 = tail call float @llvm.fmuladd.f32(float %22, float %17, float %3)
  %24 = tail call float @llvm.fmuladd.f32(float %23, float %17, float %4)
  br label %32

25:                                               ; preds = %8
  %26 = fneg float %17
  %27 = fsub float %0, %17
  %28 = tail call float @llvm.fmuladd.f32(float %27, float %26, float %1)
  %29 = tail call float @llvm.fmuladd.f32(float %28, float %26, float %2)
  %30 = tail call float @llvm.fmuladd.f32(float %29, float %26, float %3)
  %31 = tail call float @llvm.fmuladd.f32(float %30, float %26, float %4)
  %.pre = tail call noundef float @llvm.fabs.f32(float %31)
  br label %32

32:                                               ; preds = %25, %19
  %.pre-phi = phi float [ %.pre, %25 ], [ %6, %19 ]
  %.0117 = phi float [ %26, %25 ], [ 0.000000e+00, %19 ]
  %.0111 = phi float [ 0.000000e+00, %25 ], [ %17, %19 ]
  %.0110 = phi float [ %4, %25 ], [ %24, %19 ]
  %33 = fcmp olt float %.pre-phi, 0x3E80000000000000
  br i1 %33, label %.loopexit, label %34

34:                                               ; preds = %32
  %35 = tail call noundef float @llvm.fabs.f32(float %.0110)
  %36 = fcmp olt float %35, 0x3E80000000000000
  br i1 %36, label %.loopexit, label %.preheader131

.preheader:                                       ; preds = %49
  %37 = fmul float %0, 4.000000e+00
  %38 = fmul float %1, 3.000000e+00
  %39 = fmul float %2, 2.000000e+00
  br label %52

.preheader131:                                    ; preds = %34, %49
  %.1112139 = phi float [ %..1112, %49 ], [ %.0111, %34 ]
  %.1118138 = phi float [ %.1118., %49 ], [ %.0117, %34 ]
  %.0126137 = phi i32 [ %51, %49 ], [ 0, %34 ]
  %40 = fadd float %.1118138, %.1112139
  %41 = fmul float %40, 5.000000e-01
  %42 = fadd float %0, %41
  %43 = tail call float @llvm.fmuladd.f32(float %42, float %41, float %1)
  %44 = tail call float @llvm.fmuladd.f32(float %43, float %41, float %2)
  %45 = tail call float @llvm.fmuladd.f32(float %44, float %41, float %3)
  %46 = tail call float @llvm.fmuladd.f32(float %45, float %41, float %4)
  %47 = tail call noundef float @llvm.fabs.f32(float %46)
  %48 = fcmp olt float %47, 0x3E80000000000000
  br i1 %48, label %.loopexit, label %49

49:                                               ; preds = %.preheader131
  %50 = fcmp ogt float %46, 0.000000e+00
  %.1118. = select i1 %50, float %.1118138, float %41
  %..1112 = select i1 %50, float %41, float %.1112139
  %51 = add nuw nsw i32 %.0126137, 1
  %exitcond.not = icmp eq i32 %51, 10
  br i1 %exitcond.not, label %.preheader, label %.preheader131, !llvm.loop !13

52:                                               ; preds = %.preheader, %66
  %.1127 = phi i32 [ %53, %66 ], [ 10, %.preheader ]
  %.3120 = phi float [ %.3120..4, %66 ], [ %.1118., %.preheader ]
  %.3114 = phi float [ %.4..3114, %66 ], [ %..1112, %.preheader ]
  %.2 = phi float [ %.5, %66 ], [ %41, %.preheader ]
  %.0 = phi float [ %.1, %66 ], [ 0.000000e+00, %.preheader ]
  %53 = add nuw nsw i32 %.1127, 1
  %exitcond143 = icmp eq i32 %.1127, 51
  br i1 %exitcond143, label %.loopexit, label %54

54:                                               ; preds = %52
  %55 = fcmp ugt float %.2, %.3120
  %56 = fcmp ult float %.2, %.3114
  %or.cond = select i1 %55, i1 %56, i1 false
  %57 = fadd float %.3120, %.3114
  %58 = fmul float %57, 5.000000e-01
  %.4 = select i1 %or.cond, float %.2, float %58
  %59 = fadd float %0, %.4
  %60 = tail call float @llvm.fmuladd.f32(float %59, float %.4, float %1)
  %61 = tail call float @llvm.fmuladd.f32(float %60, float %.4, float %2)
  %62 = tail call float @llvm.fmuladd.f32(float %61, float %.4, float %3)
  %63 = tail call float @llvm.fmuladd.f32(float %62, float %.4, float %4)
  %64 = tail call noundef float @llvm.fabs.f32(float %63)
  %65 = fcmp olt float %64, 0x3E80000000000000
  br i1 %65, label %.loopexit, label %66

66:                                               ; preds = %54
  %67 = fcmp ogt float %63, 0.000000e+00
  %.3120..4 = select i1 %67, float %.3120, float %.4
  %.4..3114 = select i1 %67, float %.4, float %.3114
  %68 = tail call float @llvm.fmuladd.f32(float %.4, float 5.000000e+00, float %37)
  %69 = tail call float @llvm.fmuladd.f32(float %68, float %.4, float %38)
  %70 = tail call float @llvm.fmuladd.f32(float %69, float %.4, float %39)
  %71 = tail call float @llvm.fmuladd.f32(float %70, float %.4, float %3)
  %72 = tail call noundef float @llvm.fabs.f32(float %71)
  %73 = fcmp olt float %72, 0x3E80000000000000
  %74 = fdiv float %63, %71
  %75 = fsub float %.4, %74
  %.5 = select i1 %73, float 0x7FF0000000000000, float %75
  %.1 = select i1 %73, float %.0, float %74
  %76 = tail call noundef float @llvm.fabs.f32(float %.1)
  %77 = fcmp ogt float %76, 0x3E80000000000000
  br i1 %77, label %52, label %.loopexit, !llvm.loop !14

.loopexit:                                        ; preds = %.preheader131, %54, %52, %66, %32, %34, %5
  %.0106 = phi float [ 0.000000e+00, %5 ], [ %.0117, %32 ], [ %.0111, %34 ], [ %.5, %66 ], [ %.2, %52 ], [ %.4, %54 ], [ %41, %.preheader131 ]
  ret float %.0106
}